target datalayout = "e-m:e-p270:32:32-p271:32:32-p272:64:64-i64:64-i128:128-f80:128-n8:16:32:64-S128"
target triple = "x86_64-unknown-linux-gnu"

%"class.node::MutexBase" = type { %union.pthread_mutex_t }
%union.pthread_mutex_t = type { %struct.__pthread_mutex_s }
%struct.__pthread_mutex_s = type { i32, i32, i32, i32, i32, i16, i16, %struct.__pthread_internal_list }
%struct.__pthread_internal_list = type { ptr, ptr }
%"class.std::__shared_count" = type { ptr }
%"class.std::__cxx11::basic_string" = type { %"struct.std::__cxx11::basic_string<char>::_Alloc_hider", i64, %union.anon }
%"struct.std::__cxx11::basic_string<char>::_Alloc_hider" = type { ptr }
%union.anon = type { i64, [8 x i8] }
%"class.v8::Local" = type { %"class.v8::LocalBase" }
%"class.v8::LocalBase" = type { %"class.v8::IndirectHandleBase" }
%"class.v8::IndirectHandleBase" = type { ptr }
%"class.std::allocator" = type { i8 }
%"class.node::permission::Permission" = type <{ %"class.std::unordered_map", i8, [7 x i8] }>
%"class.std::unordered_map" = type { %"class.std::_Hashtable" }
%"class.std::_Hashtable" = type { ptr, i64, %"struct.std::__detail::_Hash_node_base", i64, %"struct.std::__detail::_Prime_rehash_policy", ptr }
%"struct.std::__detail::_Hash_node_base" = type { ptr }
%"struct.std::__detail::_Prime_rehash_policy" = type { float, i64 }
%"class.std::vector.96" = type { %"struct.std::_Vector_base.97" }
%"struct.std::_Vector_base.97" = type { %"struct.std::_Vector_base<std::__cxx11::basic_string<char>, std::allocator<std::__cxx11::basic_string<char>>>::_Vector_impl" }
%"struct.std::_Vector_base<std::__cxx11::basic_string<char>, std::allocator<std::__cxx11::basic_string<char>>>::_Vector_impl" = type { %"struct.std::_Vector_base<std::__cxx11::basic_string<char>, std::allocator<std::__cxx11::basic_string<char>>>::_Vector_impl_data" }
%"struct.std::_Vector_base<std::__cxx11::basic_string<char>, std::allocator<std::__cxx11::basic_string<char>>>::_Vector_impl_data" = type { ptr, ptr, ptr }
%"class.node::Environment" = type { %"class.node::MemoryRetainer", %"class.std::unordered_multimap", %"class.std::__cxx11::list", ptr, ptr, %struct.uv_timer_s, %struct.uv_check_s, %struct.uv_idle_s, %struct.uv_prepare_s, %struct.uv_check_s, %struct.uv_async_s, i64, %"struct.std::atomic", %"struct.std::atomic", %"class.node::AsyncHooks", %"class.node::ImmediateInfo", %"class.node::AliasedBufferBase.42", %"class.node::TickInfo", %"class.node::permission::Permission", i64, %"class.std::shared_ptr", i8, i8, i8, i8, i8, i8, i64, %"class.std::vector.48", %"class.std::unordered_set", %"class.std::unique_ptr", %"class.std::unique_ptr.74", %"class.std::__cxx11::basic_string", %"class.std::__cxx11::basic_string", %"class.std::__cxx11::basic_string", i64, %"class.std::unique_ptr.82", %"class.std::__cxx11::basic_string", %"class.std::__cxx11::basic_string", i64, %"class.std::shared_ptr.90", %"class.std::shared_ptr.93", %"class.std::vector.96", %"class.std::vector.96", %"class.std::__cxx11::basic_string", i8, i32, i32, i8, i32, i32, i32, i32, %"class.node::AliasedBufferBase.42", %"class.node::AliasedBufferBase.32", i32, %"class.std::unique_ptr.101", %"class.node::AliasedBufferBase.42", i64, double, i64, %"class.std::unique_ptr.109", i8, i64, i64, %"class.std::unordered_set.117", %"class.std::unique_ptr.137", i8, %"class.std::__cxx11::list.145", %"class.node::ListHead", %"class.node::ListHead.150", %"class.std::__cxx11::list.152", i32, i32, %"class.node::EnabledDebugList", %"class.std::vector.157", %"class.std::__cxx11::list.162", %"class.node::MutexBase", %"class.std::__cxx11::list.167", %"class.node::CallbackQueue", %"class.node::MutexBase", %"class.node::CallbackQueue", %"class.node::CallbackQueue", i8, %"struct.std::atomic.182", %"class.node::CleanupQueue", i8, %"class.std::unordered_set.200", %"class.std::function", %"class.std::unique_ptr.215", %"class.node::builtins::BuiltinLoader", %"class.std::function.229", %"class.std::unordered_map.231" }
%"class.node::MemoryRetainer" = type { ptr }
%"class.std::unordered_multimap" = type { %"class.std::_Hashtable.5" }
%"class.std::_Hashtable.5" = type { ptr, i64, %"struct.std::__detail::_Hash_node_base", i64, %"struct.std::__detail::_Prime_rehash_policy", ptr }
%"class.std::__cxx11::list" = type { %"class.std::__cxx11::_List_base" }
%"class.std::__cxx11::_List_base" = type { %"struct.std::__cxx11::_List_base<node::binding::DLib, std::allocator<node::binding::DLib>>::_List_impl" }
%"struct.std::__cxx11::_List_base<node::binding::DLib, std::allocator<node::binding::DLib>>::_List_impl" = type { %"struct.std::__detail::_List_node_header" }
%"struct.std::__detail::_List_node_header" = type { %"struct.std::__detail::_List_node_base", i64 }
%"struct.std::__detail::_List_node_base" = type { ptr, ptr }
%struct.uv_timer_s = type { ptr, ptr, i32, ptr, %struct.uv__queue, %union.anon.27, ptr, i32, ptr, [3 x ptr], i64, i64, i64 }
%struct.uv__queue = type { ptr, ptr }
%union.anon.27 = type { [4 x ptr] }
%struct.uv_idle_s = type { ptr, ptr, i32, ptr, %struct.uv__queue, %union.anon.29, ptr, i32, ptr, %struct.uv__queue }
%union.anon.29 = type { [4 x ptr] }
%struct.uv_prepare_s = type { ptr, ptr, i32, ptr, %struct.uv__queue, %union.anon.30, ptr, i32, ptr, %struct.uv__queue }
%union.anon.30 = type { [4 x ptr] }
%struct.uv_check_s = type { ptr, ptr, i32, ptr, %struct.uv__queue, %union.anon.28, ptr, i32, ptr, %struct.uv__queue }
%union.anon.28 = type { [4 x ptr] }
%struct.uv_async_s = type { ptr, ptr, i32, ptr, %struct.uv__queue, %union.anon.31, ptr, i32, ptr, %struct.uv__queue, i32 }
%union.anon.31 = type { [4 x ptr] }
%"struct.std::atomic" = type { %"struct.std::__atomic_base" }
%"struct.std::__atomic_base" = type { i8 }
%"class.node::AsyncHooks" = type { %"class.node::MemoryRetainer", %"class.node::AliasedBufferBase", %"class.node::AliasedBufferBase.32", %"class.node::AliasedBufferBase", %"class.v8::Global.35", %"class.std::vector", ptr, %"struct.std::array" }
%"class.node::AliasedBufferBase" = type { %"class.node::MemoryRetainer", ptr, i64, i64, ptr, %"class.v8::Global", ptr }
%"class.v8::Global" = type { %"class.v8::PersistentBase" }
%"class.v8::PersistentBase" = type { %"class.v8::IndirectHandleBase" }
%"class.v8::Global.35" = type { %"class.v8::PersistentBase.36" }
%"class.v8::PersistentBase.36" = type { %"class.v8::IndirectHandleBase" }
%"class.std::vector" = type { %"struct.std::_Vector_base" }
%"struct.std::_Vector_base" = type { %"struct.std::_Vector_base<v8::Local<v8::Object>, std::allocator<v8::Local<v8::Object>>>::_Vector_impl" }
%"struct.std::_Vector_base<v8::Local<v8::Object>, std::allocator<v8::Local<v8::Object>>>::_Vector_impl" = type { %"struct.std::_Vector_base<v8::Local<v8::Object>, std::allocator<v8::Local<v8::Object>>>::_Vector_impl_data" }
%"struct.std::_Vector_base<v8::Local<v8::Object>, std::allocator<v8::Local<v8::Object>>>::_Vector_impl_data" = type { ptr, ptr, ptr }
%"struct.std::array" = type { [4 x %"class.v8::Global.40"] }
%"class.v8::Global.40" = type { %"class.v8::PersistentBase.41" }
%"class.v8::PersistentBase.41" = type { %"class.v8::IndirectHandleBase" }
%"class.node::ImmediateInfo" = type { %"class.node::MemoryRetainer", %"class.node::AliasedBufferBase.32" }
%"class.node::TickInfo" = type { %"class.node::MemoryRetainer", %"class.node::AliasedBufferBase.45" }
%"class.node::AliasedBufferBase.45" = type { %"class.node::MemoryRetainer", ptr, i64, i64, ptr, %"class.v8::Global.46", ptr }
%"class.v8::Global.46" = type { %"class.v8::PersistentBase.47" }
%"class.v8::PersistentBase.47" = type { %"class.v8::IndirectHandleBase" }
%"class.std::shared_ptr" = type { %"class.std::__shared_ptr" }
%"class.std::__shared_ptr" = type { ptr, %"class.std::__shared_count" }
%"class.std::vector.48" = type { %"struct.std::_Vector_base.49" }
%"struct.std::_Vector_base.49" = type { %"struct.std::_Vector_base<double, std::allocator<double>>::_Vector_impl" }
%"struct.std::_Vector_base<double, std::allocator<double>>::_Vector_impl" = type { %"struct.std::_Vector_base<double, std::allocator<double>>::_Vector_impl_data" }
%"struct.std::_Vector_base<double, std::allocator<double>>::_Vector_impl_data" = type { ptr, ptr, ptr }
%"class.std::unordered_set" = type { %"class.std::_Hashtable.53" }
%"class.std::_Hashtable.53" = type { ptr, i64, %"struct.std::__detail::_Hash_node_base", i64, %"struct.std::__detail::_Prime_rehash_policy", ptr }
%"class.std::unique_ptr" = type { %"struct.std::__uniq_ptr_data" }
%"struct.std::__uniq_ptr_data" = type { %"class.std::__uniq_ptr_impl" }
%"class.std::__uniq_ptr_impl" = type { %"class.std::tuple" }
%"class.std::tuple" = type { %"struct.std::_Tuple_impl" }
%"struct.std::_Tuple_impl" = type { %"struct.std::_Head_base.73" }
%"struct.std::_Head_base.73" = type { ptr }
%"class.std::unique_ptr.74" = type { %"struct.std::__uniq_ptr_data.75" }
%"struct.std::__uniq_ptr_data.75" = type { %"class.std::__uniq_ptr_impl.76" }
%"class.std::__uniq_ptr_impl.76" = type { %"class.std::tuple.77" }
%"class.std::tuple.77" = type { %"struct.std::_Tuple_impl.78" }
%"struct.std::_Tuple_impl.78" = type { %"struct.std::_Head_base.81" }
%"struct.std::_Head_base.81" = type { ptr }
%"class.std::unique_ptr.82" = type { %"struct.std::__uniq_ptr_data.83" }
%"struct.std::__uniq_ptr_data.83" = type { %"class.std::__uniq_ptr_impl.84" }
%"class.std::__uniq_ptr_impl.84" = type { %"class.std::tuple.85" }
%"class.std::tuple.85" = type { %"struct.std::_Tuple_impl.86" }
%"struct.std::_Tuple_impl.86" = type { %"struct.std::_Head_base.89" }
%"struct.std::_Head_base.89" = type { ptr }
%"class.std::shared_ptr.90" = type { %"class.std::__shared_ptr.91" }
%"class.std::__shared_ptr.91" = type { ptr, %"class.std::__shared_count" }
%"class.std::shared_ptr.93" = type { %"class.std::__shared_ptr.94" }
%"class.std::__shared_ptr.94" = type { ptr, %"class.std::__shared_count" }
%"class.node::AliasedBufferBase.32" = type { %"class.node::MemoryRetainer", ptr, i64, i64, ptr, %"class.v8::Global.33", ptr }
%"class.v8::Global.33" = type { %"class.v8::PersistentBase.34" }
%"class.v8::PersistentBase.34" = type { %"class.v8::IndirectHandleBase" }
%"class.std::unique_ptr.101" = type { %"struct.std::__uniq_ptr_data.102" }
%"struct.std::__uniq_ptr_data.102" = type { %"class.std::__uniq_ptr_impl.103" }
%"class.std::__uniq_ptr_impl.103" = type { %"class.std::tuple.104" }
%"class.std::tuple.104" = type { %"struct.std::_Tuple_impl.105" }
%"struct.std::_Tuple_impl.105" = type { %"struct.std::_Head_base.108" }
%"struct.std::_Head_base.108" = type { ptr }
%"class.node::AliasedBufferBase.42" = type { %"class.node::MemoryRetainer", ptr, i64, i64, ptr, %"class.v8::Global.43", ptr }
%"class.v8::Global.43" = type { %"class.v8::PersistentBase.44" }
%"class.v8::PersistentBase.44" = type { %"class.v8::IndirectHandleBase" }
%"class.std::unique_ptr.109" = type { %"struct.std::__uniq_ptr_data.110" }
%"struct.std::__uniq_ptr_data.110" = type { %"class.std::__uniq_ptr_impl.111" }
%"class.std::__uniq_ptr_impl.111" = type { %"class.std::tuple.112" }
%"class.std::tuple.112" = type { %"struct.std::_Tuple_impl.113" }
%"struct.std::_Tuple_impl.113" = type { %"struct.std::_Head_base.116" }
%"struct.std::_Head_base.116" = type { ptr }
%"class.std::unordered_set.117" = type { %"class.std::_Hashtable.118" }
%"class.std::_Hashtable.118" = type { ptr, i64, %"struct.std::__detail::_Hash_node_base", i64, %"struct.std::__detail::_Prime_rehash_policy", ptr }
%"class.std::unique_ptr.137" = type { %"struct.std::__uniq_ptr_data.138" }
%"struct.std::__uniq_ptr_data.138" = type { %"class.std::__uniq_ptr_impl.139" }
%"class.std::__uniq_ptr_impl.139" = type { %"class.std::tuple.140" }
%"class.std::tuple.140" = type { %"struct.std::_Tuple_impl.141" }
%"struct.std::_Tuple_impl.141" = type { %"struct.std::_Head_base.144" }
%"struct.std::_Head_base.144" = type { ptr }
%"class.std::__cxx11::list.145" = type { %"class.std::__cxx11::_List_base.146" }
%"class.std::__cxx11::_List_base.146" = type { %"struct.std::__cxx11::_List_base<node::DeserializeRequest, std::allocator<node::DeserializeRequest>>::_List_impl" }
%"struct.std::__cxx11::_List_base<node::DeserializeRequest, std::allocator<node::DeserializeRequest>>::_List_impl" = type { %"struct.std::__detail::_List_node_header" }
%"class.node::ListHead" = type { %"class.node::ListNode" }
%"class.node::ListNode" = type { ptr, ptr }
%"class.node::ListHead.150" = type { %"class.node::ListNode.151" }
%"class.node::ListNode.151" = type { ptr, ptr }
%"class.std::__cxx11::list.152" = type { %"class.std::__cxx11::_List_base.153" }
%"class.std::__cxx11::_List_base.153" = type { %"struct.std::__cxx11::_List_base<node::Environment::HandleCleanup, std::allocator<node::Environment::HandleCleanup>>::_List_impl" }
%"struct.std::__cxx11::_List_base<node::Environment::HandleCleanup, std::allocator<node::Environment::HandleCleanup>>::_List_impl" = type { %"struct.std::__detail::_List_node_header" }
%"class.node::EnabledDebugList" = type { [75 x i8] }
%"class.std::vector.157" = type { %"struct.std::_Vector_base.158" }
%"struct.std::_Vector_base.158" = type { %"struct.std::_Vector_base<v8::Global<v8::Context>, std::allocator<v8::Global<v8::Context>>>::_Vector_impl" }
%"struct.std::_Vector_base<v8::Global<v8::Context>, std::allocator<v8::Global<v8::Context>>>::_Vector_impl" = type { %"struct.std::_Vector_base<v8::Global<v8::Context>, std::allocator<v8::Global<v8::Context>>>::_Vector_impl_data" }
%"struct.std::_Vector_base<v8::Global<v8::Context>, std::allocator<v8::Global<v8::Context>>>::_Vector_impl_data" = type { ptr, ptr, ptr }
%"class.std::__cxx11::list.162" = type { %"class.std::__cxx11::_List_base.163" }
%"class.std::__cxx11::_List_base.163" = type { %"struct.std::__cxx11::_List_base<node::node_module, std::allocator<node::node_module>>::_List_impl" }
%"struct.std::__cxx11::_List_base<node::node_module, std::allocator<node::node_module>>::_List_impl" = type { %"struct.std::__detail::_List_node_header" }
%"class.std::__cxx11::list.167" = type { %"class.std::__cxx11::_List_base.168" }
%"class.std::__cxx11::_List_base.168" = type { %"struct.std::__cxx11::_List_base<node::Environment::ExitCallback, std::allocator<node::Environment::ExitCallback>>::_List_impl" }
%"struct.std::__cxx11::_List_base<node::Environment::ExitCallback, std::allocator<node::Environment::ExitCallback>>::_List_impl" = type { %"struct.std::__detail::_List_node_header" }
%"class.node::CallbackQueue" = type { %"struct.std::atomic.172", %"class.std::unique_ptr.174", ptr }
%"struct.std::atomic.172" = type { %"struct.std::__atomic_base.173" }
%"struct.std::__atomic_base.173" = type { i64 }
%"class.std::unique_ptr.174" = type { %"struct.std::__uniq_ptr_data.175" }
%"struct.std::__uniq_ptr_data.175" = type { %"class.std::__uniq_ptr_impl.176" }
%"class.std::__uniq_ptr_impl.176" = type { %"class.std::tuple.177" }
%"class.std::tuple.177" = type { %"struct.std::_Tuple_impl.178" }
%"struct.std::_Tuple_impl.178" = type { %"struct.std::_Head_base.181" }
%"struct.std::_Head_base.181" = type { ptr }
%"struct.std::atomic.182" = type { %"struct.std::__atomic_base.183" }
%"struct.std::__atomic_base.183" = type { ptr }
%"class.node::CleanupQueue" = type { %"class.node::MemoryRetainer", %"class.std::unordered_set.184", i64 }
%"class.std::unordered_set.184" = type { %"class.std::_Hashtable.185" }
%"class.std::_Hashtable.185" = type { ptr, i64, %"struct.std::__detail::_Hash_node_base", i64, %"struct.std::__detail::_Prime_rehash_policy", ptr }
%"class.std::unordered_set.200" = type { %"class.std::_Hashtable.201" }
%"class.std::_Hashtable.201" = type { ptr, i64, %"struct.std::__detail::_Hash_node_base", i64, %"struct.std::__detail::_Prime_rehash_policy", ptr }
%"class.std::function" = type { %"class.std::_Function_base", ptr }
%"class.std::_Function_base" = type { %"union.std::_Any_data", ptr }
%"union.std::_Any_data" = type { %"union.std::_Nocopy_types" }
%"union.std::_Nocopy_types" = type { { i64, i64 } }
%"class.std::unique_ptr.215" = type { %"struct.std::__uniq_ptr_data.216" }
%"struct.std::__uniq_ptr_data.216" = type { %"class.std::__uniq_ptr_impl.217" }
%"class.std::__uniq_ptr_impl.217" = type { %"class.std::tuple.218" }
%"class.std::tuple.218" = type { %"struct.std::_Tuple_impl.219" }
%"struct.std::_Tuple_impl.219" = type { %"struct.std::_Head_base.222" }
%"struct.std::_Head_base.222" = type { ptr }
%"class.node::builtins::BuiltinLoader" = type { %"class.node::ThreadsafeCopyOnWrite", %"class.node::UnionBytes", %"class.std::shared_ptr.226" }
%"class.node::ThreadsafeCopyOnWrite" = type { %"class.node::CopyOnWrite" }
%"class.node::CopyOnWrite" = type { %"class.std::shared_ptr.223" }
%"class.std::shared_ptr.223" = type { %"class.std::__shared_ptr.224" }
%"class.std::__shared_ptr.224" = type { ptr, %"class.std::__shared_count" }
%"class.node::UnionBytes" = type { ptr, ptr }
%"class.std::shared_ptr.226" = type { %"class.std::__shared_ptr.227" }
%"class.std::__shared_ptr.227" = type { ptr, %"class.std::__shared_count" }
%"class.std::function.229" = type { %"class.std::_Function_base", ptr }
%"class.std::unordered_map.231" = type { %"class.std::_Hashtable.232" }
%"class.std::_Hashtable.232" = type { ptr, i64, %"struct.std::__detail::_Hash_node_base", i64, %"struct.std::__detail::_Prime_rehash_policy", ptr }

@.str.8 = private unnamed_addr constant [1 x i8] zeroinitializer, align 1
@.str.187 = private unnamed_addr constant [50 x i8] c"basic_string: construction from null is not valid\00", align 1

; Function Attrs: mustprogress nounwind uwtable
define linkonce_odr dso_local noundef i64 @_ZNSt11char_traitsIcE6lengthEPKc(ptr noundef %__s) #4 comdat align 2 {
entry:
  %__s.addr = alloca ptr, align 8
  store ptr %__s, ptr %__s.addr, align 8
  %0 = load ptr, ptr %__s.addr, align 8
  %call = call i64 @strlen(ptr noundef %0) #3
  ret i64 %call
}

; Function Attrs: mustprogress nounwind uwtable
define linkonce_odr dso_local void @_ZNSt7__cxx1112basic_stringIcSt11char_traitsIcESaIcEEC2IS3_EEPKcRKS3_(ptr noundef nonnull align 8 dereferenceable(32) %this, ptr noundef %__s, ptr noundef nonnull align 1 dereferenceable(1) %__a) unnamed_addr #4 comdat align 2 {
entry:
  %this.addr = alloca ptr, align 8
  %__s.addr = alloca ptr, align 8
  %__a.addr = alloca ptr, align 8
  %__end = alloca ptr, align 8
  store ptr %this, ptr %this.addr, align 8
  store ptr %__s, ptr %__s.addr, align 8
  store ptr %__a, ptr %__a.addr, align 8
  %this1 = load ptr, ptr %this.addr, align 8
  %_M_dataplus = getelementptr inbounds %"class.std::__cxx11::basic_string", ptr %this1, i32 0, i32 0
  %call = call noundef ptr @_ZNSt7__cxx1112basic_stringIcSt11char_traitsIcESaIcEE13_M_local_dataEv(ptr noundef nonnull align 8 dereferenceable(32) %this1)
  %0 = load ptr, ptr %__a.addr, align 8
  call void @_ZNSt7__cxx1112basic_stringIcSt11char_traitsIcESaIcEE12_Alloc_hiderC1EPcRKS3_(ptr noundef nonnull align 8 dereferenceable(8) %_M_dataplus, ptr noundef %call, ptr noundef nonnull align 1 dereferenceable(1) %0)
  %1 = load ptr, ptr %__s.addr, align 8
  %cmp = icmp eq ptr %1, null
  br i1 %cmp, label %if.then, label %if.end

if.then:                                          ; preds = %entry
  call void @_ZSt19__throw_logic_errorPKc(ptr noundef @.str.187) #18
  unreachable

if.end:                                           ; preds = %entry
  %2 = load ptr, ptr %__s.addr, align 8
  %3 = load ptr, ptr %__s.addr, align 8
  %call2 = call noundef i64 @_ZNSt11char_traitsIcE6lengthEPKc(ptr noundef %3)
  %add.ptr = getelementptr inbounds i8, ptr %2, i64 %call2
  store ptr %add.ptr, ptr %__end, align 8
  %4 = load ptr, ptr %__s.addr, align 8
  %5 = load ptr, ptr %__end, align 8
  call void @_ZNSt7__cxx1112basic_stringIcSt11char_traitsIcESaIcEE12_M_constructIPKcEEvT_S8_St20forward_iterator_tag(ptr noundef nonnull align 8 dereferenceable(32) %this1, ptr noundef %4, ptr noundef %5)
  ret void
}

; Function Attrs: mustprogress nounwind uwtable
define linkonce_odr dso_local noundef ptr @_ZNK4node11Environment7isolateEv(ptr noundef nonnull align 8 dereferenceable(2872) %this) #4 comdat align 2 {
entry:
  %this.addr = alloca ptr, align 8
  store ptr %this, ptr %this.addr, align 8
  %this1 = load ptr, ptr %this.addr, align 8
  %isolate_ = getelementptr inbounds %"class.node::Environment", ptr %this1, i32 0, i32 3
  %0 = load ptr, ptr %isolate_, align 8
  ret ptr %0
}

; Function Attrs: mustprogress nounwind uwtable
define dso_local void @_ZN4node13GetNodeReportEPNS_11EnvironmentEPKcS3_N2v85LocalINS4_5ValueEEERSo(ptr noundef %env, ptr noundef %message, ptr noundef %trigger, ptr %error.coerce, ptr noundef nonnull align 8 dereferenceable(8) %out) #4 {
entry:
  %error = alloca %"class.v8::Local", align 8
  %env.addr = alloca ptr, align 8
  %message.addr = alloca ptr, align 8
  %trigger.addr = alloca ptr, align 8
  %out.addr = alloca ptr, align 8
  %isolate = alloca ptr, align 8
  %ref.tmp = alloca %"class.std::__cxx11::basic_string", align 8
  %ref.tmp3 = alloca %"class.std::allocator", align 1
  %agg.tmp = alloca %"class.v8::Local", align 8
  %coerce.dive = getelementptr inbounds %"class.v8::Local", ptr %error, i32 0, i32 0
  %coerce.dive1 = getelementptr inbounds %"class.v8::LocalBase", ptr %coerce.dive, i32 0, i32 0
  %coerce.dive2 = getelementptr inbounds %"class.v8::IndirectHandleBase", ptr %coerce.dive1, i32 0, i32 0
  store ptr %error.coerce, ptr %coerce.dive2, align 8
  store ptr %env, ptr %env.addr, align 8
  store ptr %message, ptr %message.addr, align 8
  store ptr %trigger, ptr %trigger.addr, align 8
  store ptr %out, ptr %out.addr, align 8
  store ptr null, ptr %isolate, align 8
  %0 = load ptr, ptr %env.addr, align 8
  %cmp = icmp ne ptr %0, null
  br i1 %cmp, label %if.then, label %if.end

if.then:                                          ; preds = %entry
  %1 = load ptr, ptr %env.addr, align 8
  %call = call noundef ptr @_ZNK4node11Environment7isolateEv(ptr noundef nonnull align 8 dereferenceable(2872) %1)
  store ptr %call, ptr %isolate, align 8
  br label %if.end

if.end:                                           ; preds = %if.then, %entry
  %2 = load ptr, ptr %isolate, align 8
  %3 = load ptr, ptr %env.addr, align 8
  %4 = load ptr, ptr %message.addr, align 8
  %5 = load ptr, ptr %trigger.addr, align 8
  call void @_ZNSaIcEC1Ev(ptr noundef nonnull align 1 dereferenceable(1) %ref.tmp3) #3
  call void @_ZNSt7__cxx1112basic_stringIcSt11char_traitsIcESaIcEEC2IS3_EEPKcRKS3_(ptr noundef nonnull align 8 dereferenceable(32) %ref.tmp, ptr noundef @.str.8, ptr noundef nonnull align 1 dereferenceable(1) %ref.tmp3)
  %6 = load ptr, ptr %out.addr, align 8
  call void @llvm.memcpy.p0.p0.i64(ptr align 8 %agg.tmp, ptr align 8 %error, i64 8, i1 false)
  %coerce.dive4 = getelementptr inbounds %"class.v8::Local", ptr %agg.tmp, i32 0, i32 0
  %coerce.dive5 = getelementptr inbounds %"class.v8::LocalBase", ptr %coerce.dive4, i32 0, i32 0
  %coerce.dive6 = getelementptr inbounds %"class.v8::IndirectHandleBase", ptr %coerce.dive5, i32 0, i32 0
  %7 = load ptr, ptr %coerce.dive6, align 8
  %coerce.val.pi = ptrtoint ptr %7 to i64
  call void @_ZN4node6reportL15WriteNodeReportEPN2v87IsolateEPNS_11EnvironmentEPKcS7_RKNSt7__cxx1112basic_stringIcSt11char_traitsIcESaIcEEERSoNS1_5LocalINS1_5ValueEEEb(ptr noundef %2, ptr noundef %3, ptr noundef %4, ptr noundef %5, ptr noundef nonnull align 8 dereferenceable(32) %ref.tmp, ptr noundef nonnull align 8 dereferenceable(8) %6, i64 %coerce.val.pi, i1 noundef zeroext false)
  call void @_ZNSt7__cxx1112basic_stringIcSt11char_traitsIcESaIcEED1Ev(ptr noundef nonnull align 8 dereferenceable(32) %ref.tmp) #3
  call void @_ZNSaIcED1Ev(ptr noundef nonnull align 1 dereferenceable(1) %ref.tmp3) #3
  ret void
}