; Function Attrs: mustprogress nounwind uwtable
define dso_local void @_ZN4node13GetNodeReportEPNS_11EnvironmentEPKcS3_N2v85LocalINS4_5ValueEEERSo(ptr noundef %env, ptr noundef %message, ptr noundef %trigger, ptr %error.coerce, ptr noundef nonnull align 8 dereferenceable(8) %out) local_unnamed_addr #3 {
entry:
  %ref.tmp = alloca %"class.std::__cxx11::basic_string", align 8
  %ref.tmp3 = alloca %"class.std::allocator", align 1
  %cmp.not = icmp eq ptr %env, null
  br i1 %cmp.not, label %if.end, label %if.then

if.then:                                          ; preds = %entry
  %isolate_.i = getelementptr inbounds i8, ptr %env, i64 88
  %0 = load ptr, ptr %isolate_.i, align 8
  br label %if.end

if.end:                                           ; preds = %if.then, %entry
  %isolate.0 = phi ptr [ %0, %if.then ], [ null, %entry ]
  call void @_ZNSaIcEC1Ev(ptr noundef nonnull align 1 dereferenceable(1) %ref.tmp3) #24
  %call.i = call noundef ptr @_ZNSt7__cxx1112basic_stringIcSt11char_traitsIcESaIcEE13_M_local_dataEv(ptr noundef nonnull align 8 dereferenceable(32) %ref.tmp) #24
  call void @_ZNSt7__cxx1112basic_stringIcSt11char_traitsIcESaIcEE12_Alloc_hiderC1EPcRKS3_(ptr noundef nonnull align 8 dereferenceable(8) %ref.tmp, ptr noundef %call.i, ptr noundef nonnull align 1 dereferenceable(1) %ref.tmp3) #24
  call void @_ZNSt7__cxx1112basic_stringIcSt11char_traitsIcESaIcEE12_M_constructIPKcEEvT_S8_St20forward_iterator_tag(ptr noundef nonnull align 8 dereferenceable(32) %ref.tmp, ptr noundef nonnull @.str.8, ptr noundef nonnull @.str.8)
  %coerce.val.pi = ptrtoint ptr %error.coerce to i64
  call fastcc void @_ZN4node6reportL15WriteNodeReportEPN2v87IsolateEPNS_11EnvironmentEPKcS7_RKNSt7__cxx1112basic_stringIcSt11char_traitsIcESaIcEEERSoNS1_5LocalINS1_5ValueEEEb(ptr noundef %isolate.0, ptr noundef %env, ptr noundef %message, ptr noundef %trigger, ptr noundef nonnull align 8 dereferenceable(32) %ref.tmp, ptr noundef nonnull align 8 dereferenceable(8) %out, i64 %coerce.val.pi, i1 noundef zeroext false)
  call void @_ZNSt7__cxx1112basic_stringIcSt11char_traitsIcESaIcEED1Ev(ptr noundef nonnull align 8 dereferenceable(32) %ref.tmp) #24
  call void @_ZNSaIcED1Ev(ptr noundef nonnull align 1 dereferenceable(1) %ref.tmp3) #24
  ret void
}